target datalayout = "e-m:e-p270:32:32-p271:32:32-p272:64:64-i64:64-i128:128-f80:128-n8:16:32:64-S128"
target triple = "x86_64-pc-linux-gnu"

%struct.strvec = type { ptr, i64, i64 }
%struct.strbuf = type { i64, i64, ptr }
%struct.oidset = type { %struct.kh_oid_set }
%struct.kh_oid_set = type { i32, i32, i32, i32, ptr, ptr, ptr }
%struct.rev_info = type { ptr, %struct.object_array, ptr, %struct.object_array, %struct.rev_cmdline_info, %struct.list_objects_filter_options, %struct.ref_exclusions, ptr, ptr, ptr, %struct.pathspec, i32, i32, i32, i32, i64, i32, i32, %struct.date_mode, i32, i32, i32, i32, ptr, i32, i32, ptr, ptr, i32, ptr, ptr, %struct.ident_split, ptr, i32, ptr, ptr, ptr, i32, i32, i32, ptr, %struct.grep_opt, ptr, i32, i32, i64, i64, i64, i32, i32, ptr, ptr, ptr, %struct.diff_options, %struct.diff_options, ptr, %struct.decoration, %struct.decoration, %struct.decoration, %struct.display_notes_opt, ptr, ptr, ptr, ptr, ptr, i32, ptr, i32, i32, i32, %struct.decoration, ptr, ptr, ptr, ptr, ptr, ptr, ptr, i32, ptr, i32, ptr, %struct.oidset }
%struct.object_array = type { i32, i32, ptr }
%struct.rev_cmdline_info = type { i32, i32, ptr }
%struct.list_objects_filter_options = type { %struct.strbuf, i32, i8, ptr, i64, i64, i32, i64, i64, ptr }
%struct.ref_exclusions = type { %struct.string_list, %struct.strvec, i8 }
%struct.string_list = type { ptr, i64, i64, i8, ptr }
%struct.pathspec = type { i32, i8, i32, i32, ptr }
%struct.date_mode = type { i32, i32, ptr }
%struct.ident_split = type { ptr, ptr, ptr, ptr, ptr, ptr, ptr, ptr }
%struct.grep_opt = type { ptr, ptr, ptr, ptr, ptr, ptr, i32, i32, i32, i32, i32, i32, i32, i32, i32, i32, i32, i32, i32, i32, i32, i32, i32, i32, i32, i32, i32, i32, i32, i32, i32, i32, [9 x [75 x i8]], i32, i32, i32, i32, i32, i32, i32, ptr, ptr, ptr }
%struct.diff_options = type { ptr, ptr, i32, i32, ptr, i32, ptr, i64, i64, ptr, ptr, ptr, ptr, %struct.diff_flags, i32, i32, i32, i32, i32, i32, i32, i32, i32, i32, i32, i32, i32, i32, i32, i32, i32, i32, i32, i32, i32, i32, ptr, i32, ptr, i32, i32, ptr, i64, i64, i32, i32, i32, i32, ptr, i32, i32, ptr, i32, i32, ptr, ptr, i32, [3 x i8], %struct.pathspec, ptr, ptr, ptr, ptr, ptr, ptr, ptr, ptr, i32, ptr, i32, i32, ptr, ptr, i32 }
%struct.diff_flags = type { i32, i32, i32, i32, i32, i32, i32, i32, i32, i32, i32, i32, i32, i32, i32, i32, i32, i32, i32, i32, i32, i32, i32, i32, i32, i32, i32, i32, i32, i32, i32, i32, i32, i32, i32 }
%struct.display_notes_opt = type { i32, %struct.string_list }
%struct.decoration = type { ptr, i32, i32, ptr }

; Function Attrs: nounwind uwtable
define internal i32 @mark_uninteresting(ptr noundef %0, ptr noundef %1, i32 noundef %2, ptr noundef %3) #0 {
  %5 = alloca ptr, align 8
  %6 = alloca ptr, align 8
  %7 = alloca i32, align 4
  %8 = alloca ptr, align 8
  %9 = alloca ptr, align 8
  %10 = alloca ptr, align 8
  store ptr %0, ptr %5, align 8, !tbaa !54
  store ptr %1, ptr %6, align 8, !tbaa !339
  store i32 %2, ptr %7, align 4, !tbaa !9
  store ptr %3, ptr %8, align 8, !tbaa !21
  call void @llvm.lifetime.start.p0(i64 8, ptr %9) #12
  %11 = load ptr, ptr %8, align 8, !tbaa !21
  store ptr %11, ptr %9, align 8, !tbaa !88
  call void @llvm.lifetime.start.p0(i64 8, ptr %10) #12
  %12 = load ptr, ptr %9, align 8, !tbaa !88
  %13 = getelementptr inbounds nuw %struct.rev_info, ptr %12, i32 0, i32 2
  %14 = load ptr, ptr %13, align 8, !tbaa !105
  %15 = load ptr, ptr %5, align 8, !tbaa !54
  %16 = call ptr @lookup_unknown_object(ptr noundef %14, ptr noundef %15)
  store ptr %16, ptr %10, align 8, !tbaa !37
  %17 = load ptr, ptr %10, align 8, !tbaa !37
  %18 = load i32, ptr %17, align 4
  %19 = lshr i32 %18, 4
  %20 = or i32 %19, 3
  %21 = load i32, ptr %17, align 4
  %22 = and i32 %20, 268435455
  %23 = shl i32 %22, 4
  %24 = and i32 %21, 15
  %25 = or i32 %24, %23
  store i32 %25, ptr %17, align 4
  call void @llvm.lifetime.end.p0(i64 8, ptr %10) #12
  call void @llvm.lifetime.end.p0(i64 8, ptr %9) #12
  ret i32 0
}