; Function Attrs: nounwind uwtable
define internal noundef i32 @mark_uninteresting(ptr noundef %0, ptr readnone captures(none) %1, i32 %2, ptr noundef readonly captures(none) %3) #2 {
  %5 = getelementptr inbounds nuw i8, ptr %3, i64 24
  %6 = load ptr, ptr %5, align 8, !tbaa !73
  %7 = tail call ptr @lookup_unknown_object(ptr noundef %6, ptr noundef %0) #26
  %8 = load i32, ptr %7, align 4
  %9 = or i32 %8, 48
  store i32 %9, ptr %7, align 4
  ret i32 0
}